target datalayout = "e-m:e-p270:32:32-p271:32:32-p272:64:64-i64:64-i128:128-f80:128-n8:16:32:64-S128"
target triple = "x86_64-pc-linux-gnu"

%union.pthread_mutex_t = type { %struct.__pthread_mutex_s }
%struct.__pthread_mutex_s = type { i32, i32, i32, i32, i32, i16, i16, %struct.__pthread_internal_list }
%struct.__pthread_internal_list = type { ptr, ptr }

@g_container_context_lock = internal global %union.pthread_mutex_t zeroinitializer, align 8
@.str.1 = private unnamed_addr constant [29 x i8] c"%s: pthread_mutex_lock(): %m\00", align 1
@g_container_context_num = internal global i32 -1, align 4
@ops = internal global ptr null, align 8
@g_container_context = internal global ptr null, align 8
@.str.7 = private unnamed_addr constant [31 x i8] c"%s: pthread_mutex_unlock(): %m\00", align 1
@__func__.job_container_fini = private unnamed_addr constant [19 x i8] c"job_container_fini\00", align 1

; Function Attrs: nounwind uwtable
define dso_local i32 @job_container_fini() #0 {
  %1 = alloca i32, align 4
  %2 = alloca i32, align 4
  %3 = alloca i32, align 4
  %4 = alloca i32, align 4
  call void @llvm.lifetime.start.p0(i64 4, ptr %1) #6
  call void @llvm.lifetime.start.p0(i64 4, ptr %2) #6
  store i32 0, ptr %2, align 4
  br label %5

5:                                                ; preds = %0
  call void @llvm.lifetime.start.p0(i64 4, ptr %3) #6
  %6 = call i32 @pthread_mutex_lock(ptr noundef @g_container_context_lock) #6
  store i32 %6, ptr %3, align 4
  %7 = load i32, ptr %3, align 4
  %8 = icmp ne i32 %7, 0
  br i1 %8, label %9, label %12

9:                                                ; preds = %5
  %10 = load i32, ptr %3, align 4
  %11 = call ptr @__errno_location() #7
  store i32 %10, ptr %11, align 4
  call void (ptr, ...) @fatal_abort(ptr noundef @.str.1, ptr noundef @__func__.job_container_fini) #8
  unreachable

12:                                               ; preds = %5
  call void @llvm.lifetime.end.p0(i64 4, ptr %3) #6
  br label %13

13:                                               ; preds = %12
  br label %14

14:                                               ; preds = %13
  %15 = load ptr, ptr @g_container_context, align 8
  %16 = icmp ne ptr %15, null
  br i1 %16, label %18, label %17

17:                                               ; preds = %14
  br label %45

18:                                               ; preds = %14
  store i32 0, ptr %1, align 4
  br label %19

19:                                               ; preds = %41, %18
  %20 = load i32, ptr %1, align 4
  %21 = load i32, ptr @g_container_context_num, align 4
  %22 = icmp slt i32 %20, %21
  br i1 %22, label %23, label %44

23:                                               ; preds = %19
  %24 = load ptr, ptr @g_container_context, align 8
  %25 = load i32, ptr %1, align 4
  %26 = sext i32 %25 to i64
  %27 = getelementptr inbounds ptr, ptr %24, i64 %26
  %28 = load ptr, ptr %27, align 8
  %29 = icmp ne ptr %28, null
  br i1 %29, label %30, label %40

30:                                               ; preds = %23
  %31 = load ptr, ptr @g_container_context, align 8
  %32 = load i32, ptr %1, align 4
  %33 = sext i32 %32 to i64
  %34 = getelementptr inbounds ptr, ptr %31, i64 %33
  %35 = load ptr, ptr %34, align 8
  %36 = call i32 @plugin_context_destroy(ptr noundef %35)
  %37 = icmp ne i32 %36, 0
  br i1 %37, label %38, label %39

38:                                               ; preds = %30
  store i32 -1, ptr %2, align 4
  br label %39

39:                                               ; preds = %38, %30
  br label %40

40:                                               ; preds = %39, %23
  br label %41

41:                                               ; preds = %40
  %42 = load i32, ptr %1, align 4
  %43 = add nsw i32 %42, 1
  store i32 %43, ptr %1, align 4
  br label %19, !llvm.loop !11

44:                                               ; preds = %19
  call void @slurm_xfree(ptr noundef @ops)
  call void @slurm_xfree(ptr noundef @g_container_context)
  store i32 -1, ptr @g_container_context_num, align 4
  br label %45

45:                                               ; preds = %44, %17
  br label %46

46:                                               ; preds = %45
  call void @llvm.lifetime.start.p0(i64 4, ptr %4) #6
  %47 = call i32 @pthread_mutex_unlock(ptr noundef @g_container_context_lock) #6
  store i32 %47, ptr %4, align 4
  %48 = load i32, ptr %4, align 4
  %49 = icmp ne i32 %48, 0
  br i1 %49, label %50, label %53

50:                                               ; preds = %46
  %51 = load i32, ptr %4, align 4
  %52 = call ptr @__errno_location() #7
  store i32 %51, ptr %52, align 4
  call void (ptr, ...) @fatal_abort(ptr noundef @.str.7, ptr noundef @__func__.job_container_fini) #8
  unreachable

53:                                               ; preds = %46
  call void @llvm.lifetime.end.p0(i64 4, ptr %4) #6
  br label %54

54:                                               ; preds = %53
  br label %55

55:                                               ; preds = %54
  %56 = load i32, ptr %2, align 4
  call void @llvm.lifetime.end.p0(i64 4, ptr %2) #6
  call void @llvm.lifetime.end.p0(i64 4, ptr %1) #6
  ret i32 %56
}