; Function Attrs: nounwind uwtable
define dso_local range(i32 -1, 1) i32 @job_container_fini() local_unnamed_addr #0 {
  %1 = tail call i32 @pthread_mutex_lock(ptr noundef nonnull @g_container_context_lock) #7
  %.not = icmp eq i32 %1, 0
  br i1 %.not, label %4, label %2

2:                                                ; preds = %0
  %3 = tail call ptr @__errno_location() #8
  store i32 %1, ptr %3, align 4
  tail call void (ptr, ...) @fatal_abort(ptr noundef nonnull @.str.1, ptr noundef nonnull @__func__.job_container_fini) #9
  unreachable

4:                                                ; preds = %0
  %5 = load ptr, ptr @g_container_context, align 8
  %.not13 = icmp eq ptr %5, null
  br i1 %.not13, label %19, label %.preheader

.preheader:                                       ; preds = %4
  %6 = load i32, ptr @g_container_context_num, align 4
  %7 = icmp sgt i32 %6, 0
  br i1 %7, label %.lr.ph, label %._crit_edge

.lr.ph:                                           ; preds = %.preheader, %14
  %8 = phi i32 [ %15, %14 ], [ %6, %.preheader ]
  %9 = phi ptr [ %16, %14 ], [ %5, %.preheader ]
  %indvars.iv = phi i64 [ %indvars.iv.next, %14 ], [ 0, %.preheader ]
  %.0917 = phi i32 [ %.1, %14 ], [ 0, %.preheader ]
  %10 = getelementptr inbounds nuw ptr, ptr %9, i64 %indvars.iv
  %11 = load ptr, ptr %10, align 8
  %.not15 = icmp eq ptr %11, null
  br i1 %.not15, label %14, label %12

12:                                               ; preds = %.lr.ph
  %13 = tail call i32 @plugin_context_destroy(ptr noundef nonnull %11) #7
  %.not16 = icmp eq i32 %13, 0
  %spec.select = select i1 %.not16, i32 %.0917, i32 -1
  %.pre = load ptr, ptr @g_container_context, align 8
  %.pre21 = load i32, ptr @g_container_context_num, align 4
  br label %14

14:                                               ; preds = %12, %.lr.ph
  %15 = phi i32 [ %8, %.lr.ph ], [ %.pre21, %12 ]
  %16 = phi ptr [ %9, %.lr.ph ], [ %.pre, %12 ]
  %.1 = phi i32 [ %.0917, %.lr.ph ], [ %spec.select, %12 ]
  %indvars.iv.next = add nuw nsw i64 %indvars.iv, 1
  %17 = sext i32 %15 to i64
  %18 = icmp slt i64 %indvars.iv.next, %17
  br i1 %18, label %.lr.ph, label %._crit_edge, !llvm.loop !11

._crit_edge:                                      ; preds = %14, %.preheader
  %.09.lcssa = phi i32 [ 0, %.preheader ], [ %.1, %14 ]
  tail call void @slurm_xfree(ptr noundef nonnull @ops) #7
  tail call void @slurm_xfree(ptr noundef nonnull @g_container_context) #7
  store i32 -1, ptr @g_container_context_num, align 4
  br label %19

19:                                               ; preds = %._crit_edge, %4
  %.2 = phi i32 [ %.09.lcssa, %._crit_edge ], [ 0, %4 ]
  %20 = tail call i32 @pthread_mutex_unlock(ptr noundef nonnull @g_container_context_lock) #7
  %.not14 = icmp eq i32 %20, 0
  br i1 %.not14, label %23, label %21

21:                                               ; preds = %19
  %22 = tail call ptr @__errno_location() #8
  store i32 %20, ptr %22, align 4
  tail call void (ptr, ...) @fatal_abort(ptr noundef nonnull @.str.7, ptr noundef nonnull @__func__.job_container_fini) #9
  unreachable

23:                                               ; preds = %19
  ret i32 %.2
}